target datalayout = "e-m:e-p270:32:32-p271:32:32-p272:64:64-i64:64-i128:128-f80:128-n8:16:32:64-S128"
target triple = "x86_64-pc-linux-gnu"

; Function Attrs: mustprogress nounwind uwtable
define noundef ptr @_ZN6google8protobuf22FastUInt32ToBufferLeftEjPc(i32 noundef %0, ptr noundef %1) #6 {
  %3 = alloca i32, align 4
  %4 = alloca ptr, align 8
  %5 = alloca i32, align 4
  %6 = alloca ptr, align 8
  store i32 %0, ptr %3, align 4, !tbaa !15
  store ptr %1, ptr %4, align 8, !tbaa !8
  call void @llvm.lifetime.start.p0(i64 4, ptr %5) #3
  call void @llvm.lifetime.start.p0(i64 8, ptr %6) #3
  store ptr null, ptr %6, align 8, !tbaa !8
  %7 = load i32, ptr %3, align 4, !tbaa !15
  %8 = icmp uge i32 %7, 1000000000
  br i1 %8, label %9, label %126

9:                                                ; preds = %2
  %10 = load i32, ptr %3, align 4, !tbaa !15
  %11 = udiv i32 %10, 100000000
  store i32 %11, ptr %5, align 4, !tbaa !15
  %12 = load i32, ptr %5, align 4, !tbaa !15
  %13 = zext i32 %12 to i64
  %14 = getelementptr inbounds nuw [100 x [2 x i8]], ptr @_ZN6google8protobufL16two_ASCII_digitsE, i64 0, i64 %13
  %15 = getelementptr inbounds [2 x i8], ptr %14, i64 0, i64 0
  store ptr %15, ptr %6, align 8, !tbaa !8
  %16 = load ptr, ptr %6, align 8, !tbaa !8
  %17 = getelementptr inbounds i8, ptr %16, i64 0
  %18 = load i8, ptr %17, align 1, !tbaa !10
  %19 = load ptr, ptr %4, align 8, !tbaa !8
  %20 = getelementptr inbounds i8, ptr %19, i64 0
  store i8 %18, ptr %20, align 1, !tbaa !10
  %21 = load ptr, ptr %6, align 8, !tbaa !8
  %22 = getelementptr inbounds i8, ptr %21, i64 1
  %23 = load i8, ptr %22, align 1, !tbaa !10
  %24 = load ptr, ptr %4, align 8, !tbaa !8
  %25 = getelementptr inbounds i8, ptr %24, i64 1
  store i8 %23, ptr %25, align 1, !tbaa !10
  %26 = load ptr, ptr %4, align 8, !tbaa !8
  %27 = getelementptr inbounds i8, ptr %26, i64 2
  store ptr %27, ptr %4, align 8, !tbaa !8
  br label %28

28:                                               ; preds = %185, %9
  %29 = load i32, ptr %5, align 4, !tbaa !15
  %30 = mul i32 %29, 100000000
  %31 = load i32, ptr %3, align 4, !tbaa !15
  %32 = sub i32 %31, %30
  store i32 %32, ptr %3, align 4, !tbaa !15
  br label %33

33:                                               ; preds = %176, %28
  %34 = load i32, ptr %3, align 4, !tbaa !15
  %35 = udiv i32 %34, 1000000
  store i32 %35, ptr %5, align 4, !tbaa !15
  %36 = load i32, ptr %5, align 4, !tbaa !15
  %37 = zext i32 %36 to i64
  %38 = getelementptr inbounds nuw [100 x [2 x i8]], ptr @_ZN6google8protobufL16two_ASCII_digitsE, i64 0, i64 %37
  %39 = getelementptr inbounds [2 x i8], ptr %38, i64 0, i64 0
  store ptr %39, ptr %6, align 8, !tbaa !8
  %40 = load ptr, ptr %6, align 8, !tbaa !8
  %41 = getelementptr inbounds i8, ptr %40, i64 0
  %42 = load i8, ptr %41, align 1, !tbaa !10
  %43 = load ptr, ptr %4, align 8, !tbaa !8
  %44 = getelementptr inbounds i8, ptr %43, i64 0
  store i8 %42, ptr %44, align 1, !tbaa !10
  %45 = load ptr, ptr %6, align 8, !tbaa !8
  %46 = getelementptr inbounds i8, ptr %45, i64 1
  %47 = load i8, ptr %46, align 1, !tbaa !10
  %48 = load ptr, ptr %4, align 8, !tbaa !8
  %49 = getelementptr inbounds i8, ptr %48, i64 1
  store i8 %47, ptr %49, align 1, !tbaa !10
  %50 = load ptr, ptr %4, align 8, !tbaa !8
  %51 = getelementptr inbounds i8, ptr %50, i64 2
  store ptr %51, ptr %4, align 8, !tbaa !8
  br label %52

52:                                               ; preds = %177, %33
  %53 = load i32, ptr %5, align 4, !tbaa !15
  %54 = mul i32 %53, 1000000
  %55 = load i32, ptr %3, align 4, !tbaa !15
  %56 = sub i32 %55, %54
  store i32 %56, ptr %3, align 4, !tbaa !15
  br label %57

57:                                               ; preds = %161, %52
  %58 = load i32, ptr %3, align 4, !tbaa !15
  %59 = udiv i32 %58, 10000
  store i32 %59, ptr %5, align 4, !tbaa !15
  %60 = load i32, ptr %5, align 4, !tbaa !15
  %61 = zext i32 %60 to i64
  %62 = getelementptr inbounds nuw [100 x [2 x i8]], ptr @_ZN6google8protobufL16two_ASCII_digitsE, i64 0, i64 %61
  %63 = getelementptr inbounds [2 x i8], ptr %62, i64 0, i64 0
  store ptr %63, ptr %6, align 8, !tbaa !8
  %64 = load ptr, ptr %6, align 8, !tbaa !8
  %65 = getelementptr inbounds i8, ptr %64, i64 0
  %66 = load i8, ptr %65, align 1, !tbaa !10
  %67 = load ptr, ptr %4, align 8, !tbaa !8
  %68 = getelementptr inbounds i8, ptr %67, i64 0
  store i8 %66, ptr %68, align 1, !tbaa !10
  %69 = load ptr, ptr %6, align 8, !tbaa !8
  %70 = getelementptr inbounds i8, ptr %69, i64 1
  %71 = load i8, ptr %70, align 1, !tbaa !10
  %72 = load ptr, ptr %4, align 8, !tbaa !8
  %73 = getelementptr inbounds i8, ptr %72, i64 1
  store i8 %71, ptr %73, align 1, !tbaa !10
  %74 = load ptr, ptr %4, align 8, !tbaa !8
  %75 = getelementptr inbounds i8, ptr %74, i64 2
  store ptr %75, ptr %4, align 8, !tbaa !8
  br label %76

76:                                               ; preds = %162, %57
  %77 = load i32, ptr %5, align 4, !tbaa !15
  %78 = mul i32 %77, 10000
  %79 = load i32, ptr %3, align 4, !tbaa !15
  %80 = sub i32 %79, %78
  store i32 %80, ptr %3, align 4, !tbaa !15
  br label %81

81:                                               ; preds = %146, %76
  %82 = load i32, ptr %3, align 4, !tbaa !15
  %83 = udiv i32 %82, 100
  store i32 %83, ptr %5, align 4, !tbaa !15
  %84 = load i32, ptr %5, align 4, !tbaa !15
  %85 = zext i32 %84 to i64
  %86 = getelementptr inbounds nuw [100 x [2 x i8]], ptr @_ZN6google8protobufL16two_ASCII_digitsE, i64 0, i64 %85
  %87 = getelementptr inbounds [2 x i8], ptr %86, i64 0, i64 0
  store ptr %87, ptr %6, align 8, !tbaa !8
  %88 = load ptr, ptr %6, align 8, !tbaa !8
  %89 = getelementptr inbounds i8, ptr %88, i64 0
  %90 = load i8, ptr %89, align 1, !tbaa !10
  %91 = load ptr, ptr %4, align 8, !tbaa !8
  %92 = getelementptr inbounds i8, ptr %91, i64 0
  store i8 %90, ptr %92, align 1, !tbaa !10
  %93 = load ptr, ptr %6, align 8, !tbaa !8
  %94 = getelementptr inbounds i8, ptr %93, i64 1
  %95 = load i8, ptr %94, align 1, !tbaa !10
  %96 = load ptr, ptr %4, align 8, !tbaa !8
  %97 = getelementptr inbounds i8, ptr %96, i64 1
  store i8 %95, ptr %97, align 1, !tbaa !10
  %98 = load ptr, ptr %4, align 8, !tbaa !8
  %99 = getelementptr inbounds i8, ptr %98, i64 2
  store ptr %99, ptr %4, align 8, !tbaa !8
  br label %100

100:                                              ; preds = %147, %81
  %101 = load i32, ptr %5, align 4, !tbaa !15
  %102 = mul i32 %101, 100
  %103 = load i32, ptr %3, align 4, !tbaa !15
  %104 = sub i32 %103, %102
  store i32 %104, ptr %3, align 4, !tbaa !15
  br label %105

105:                                              ; preds = %133, %100
  %106 = load i32, ptr %3, align 4, !tbaa !15
  store i32 %106, ptr %5, align 4, !tbaa !15
  %107 = load i32, ptr %5, align 4, !tbaa !15
  %108 = zext i32 %107 to i64
  %109 = getelementptr inbounds nuw [100 x [2 x i8]], ptr @_ZN6google8protobufL16two_ASCII_digitsE, i64 0, i64 %108
  %110 = getelementptr inbounds [2 x i8], ptr %109, i64 0, i64 0
  store ptr %110, ptr %6, align 8, !tbaa !8
  %111 = load ptr, ptr %6, align 8, !tbaa !8
  %112 = getelementptr inbounds i8, ptr %111, i64 0
  %113 = load i8, ptr %112, align 1, !tbaa !10
  %114 = load ptr, ptr %4, align 8, !tbaa !8
  %115 = getelementptr inbounds i8, ptr %114, i64 0
  store i8 %113, ptr %115, align 1, !tbaa !10
  %116 = load ptr, ptr %6, align 8, !tbaa !8
  %117 = getelementptr inbounds i8, ptr %116, i64 1
  %118 = load i8, ptr %117, align 1, !tbaa !10
  %119 = load ptr, ptr %4, align 8, !tbaa !8
  %120 = getelementptr inbounds i8, ptr %119, i64 1
  store i8 %118, ptr %120, align 1, !tbaa !10
  %121 = load ptr, ptr %4, align 8, !tbaa !8
  %122 = getelementptr inbounds i8, ptr %121, i64 2
  store ptr %122, ptr %4, align 8, !tbaa !8
  br label %123

123:                                              ; preds = %134, %105
  %124 = load ptr, ptr %4, align 8, !tbaa !8
  store i8 0, ptr %124, align 1, !tbaa !10
  %125 = load ptr, ptr %4, align 8, !tbaa !8
  call void @llvm.lifetime.end.p0(i64 8, ptr %6) #3
  call void @llvm.lifetime.end.p0(i64 4, ptr %5) #3
  ret ptr %125

126:                                              ; preds = %2
  %127 = load i32, ptr %3, align 4, !tbaa !15
  %128 = icmp ult i32 %127, 100
  br i1 %128, label %129, label %140

129:                                              ; preds = %126
  %130 = load i32, ptr %3, align 4, !tbaa !15
  store i32 %130, ptr %5, align 4, !tbaa !15
  %131 = load i32, ptr %3, align 4, !tbaa !15
  %132 = icmp uge i32 %131, 10
  br i1 %132, label %133, label %134

133:                                              ; preds = %129
  br label %105

134:                                              ; preds = %129
  %135 = load i32, ptr %5, align 4, !tbaa !15
  %136 = add i32 48, %135
  %137 = trunc i32 %136 to i8
  %138 = load ptr, ptr %4, align 8, !tbaa !8
  %139 = getelementptr inbounds nuw i8, ptr %138, i32 1
  store ptr %139, ptr %4, align 8, !tbaa !8
  store i8 %137, ptr %138, align 1, !tbaa !10
  br label %123

140:                                              ; preds = %126
  %141 = load i32, ptr %3, align 4, !tbaa !15
  %142 = icmp ult i32 %141, 10000
  br i1 %142, label %143, label %155

143:                                              ; preds = %140
  %144 = load i32, ptr %3, align 4, !tbaa !15
  %145 = icmp uge i32 %144, 1000
  br i1 %145, label %146, label %147

146:                                              ; preds = %143
  br label %81

147:                                              ; preds = %143
  %148 = load i32, ptr %3, align 4, !tbaa !15
  %149 = udiv i32 %148, 100
  store i32 %149, ptr %5, align 4, !tbaa !15
  %150 = load i32, ptr %5, align 4, !tbaa !15
  %151 = add i32 48, %150
  %152 = trunc i32 %151 to i8
  %153 = load ptr, ptr %4, align 8, !tbaa !8
  %154 = getelementptr inbounds nuw i8, ptr %153, i32 1
  store ptr %154, ptr %4, align 8, !tbaa !8
  store i8 %152, ptr %153, align 1, !tbaa !10
  br label %100

155:                                              ; preds = %140
  %156 = load i32, ptr %3, align 4, !tbaa !15
  %157 = icmp ult i32 %156, 1000000
  br i1 %157, label %158, label %170

158:                                              ; preds = %155
  %159 = load i32, ptr %3, align 4, !tbaa !15
  %160 = icmp uge i32 %159, 100000
  br i1 %160, label %161, label %162

161:                                              ; preds = %158
  br label %57

162:                                              ; preds = %158
  %163 = load i32, ptr %3, align 4, !tbaa !15
  %164 = udiv i32 %163, 10000
  store i32 %164, ptr %5, align 4, !tbaa !15
  %165 = load i32, ptr %5, align 4, !tbaa !15
  %166 = add i32 48, %165
  %167 = trunc i32 %166 to i8
  %168 = load ptr, ptr %4, align 8, !tbaa !8
  %169 = getelementptr inbounds nuw i8, ptr %168, i32 1
  store ptr %169, ptr %4, align 8, !tbaa !8
  store i8 %167, ptr %168, align 1, !tbaa !10
  br label %76

170:                                              ; preds = %155
  %171 = load i32, ptr %3, align 4, !tbaa !15
  %172 = icmp ult i32 %171, 100000000
  br i1 %172, label %173, label %185

173:                                              ; preds = %170
  %174 = load i32, ptr %3, align 4, !tbaa !15
  %175 = icmp uge i32 %174, 10000000
  br i1 %175, label %176, label %177

176:                                              ; preds = %173
  br label %33

177:                                              ; preds = %173
  %178 = load i32, ptr %3, align 4, !tbaa !15
  %179 = udiv i32 %178, 1000000
  store i32 %179, ptr %5, align 4, !tbaa !15
  %180 = load i32, ptr %5, align 4, !tbaa !15
  %181 = add i32 48, %180
  %182 = trunc i32 %181 to i8
  %183 = load ptr, ptr %4, align 8, !tbaa !8
  %184 = getelementptr inbounds nuw i8, ptr %183, i32 1
  store ptr %184, ptr %4, align 8, !tbaa !8
  store i8 %182, ptr %183, align 1, !tbaa !10
  br label %52

185:                                              ; preds = %170
  %186 = load i32, ptr %3, align 4, !tbaa !15
  %187 = udiv i32 %186, 100000000
  store i32 %187, ptr %5, align 4, !tbaa !15
  %188 = load i32, ptr %5, align 4, !tbaa !15
  %189 = add i32 48, %188
  %190 = trunc i32 %189 to i8
  %191 = load ptr, ptr %4, align 8, !tbaa !8
  %192 = getelementptr inbounds nuw i8, ptr %191, i32 1
  store ptr %192, ptr %4, align 8, !tbaa !8
  store i8 %190, ptr %191, align 1, !tbaa !10
  br label %28
}