; Function Attrs: mustprogress nofree norecurse nosync nounwind willreturn memory(write, inaccessiblemem: none) uwtable
define noundef nonnull ptr @_ZN6google8protobuf22FastUInt32ToBufferLeftEjPc(i32 noundef %0, ptr noundef writeonly %1) local_unnamed_addr #17 {
  %3 = icmp ugt i32 %0, 999999999
  br i1 %3, label %4, label %57

4:                                                ; preds = %2
  %5 = udiv i32 %0, 100000000
  %6 = zext nneg i32 %5 to i64
  %7 = getelementptr inbounds nuw [100 x [2 x i8]], ptr @_ZN6google8protobufL16two_ASCII_digitsE, i64 0, i64 %6
  %8 = load i8, ptr %7, align 2, !tbaa !11
  store i8 %8, ptr %1, align 1, !tbaa !11
  %9 = getelementptr inbounds nuw i8, ptr %7, i64 1
  %10 = load i8, ptr %9, align 1, !tbaa !11
  %11 = getelementptr inbounds nuw i8, ptr %1, i64 1
  store i8 %10, ptr %11, align 1, !tbaa !11
  %12 = getelementptr inbounds nuw i8, ptr %1, i64 2
  br label %13

13:                                               ; preds = %92, %4
  %.068 = phi ptr [ %12, %4 ], [ %96, %92 ]
  %.0 = phi i32 [ %5, %4 ], [ %93, %92 ]
  %.neg = mul i32 %.0, -100000000
  %14 = add i32 %.neg, %0
  br label %15

15:                                               ; preds = %85, %13
  %.072 = phi i32 [ %14, %13 ], [ %0, %85 ]
  %.169 = phi ptr [ %.068, %13 ], [ %1, %85 ]
  %16 = udiv i32 %.072, 1000000
  %17 = zext nneg i32 %16 to i64
  %18 = getelementptr inbounds nuw [100 x [2 x i8]], ptr @_ZN6google8protobufL16two_ASCII_digitsE, i64 0, i64 %17
  %19 = load i8, ptr %18, align 2, !tbaa !11
  store i8 %19, ptr %.169, align 1, !tbaa !11
  %20 = getelementptr inbounds nuw i8, ptr %18, i64 1
  %21 = load i8, ptr %20, align 1, !tbaa !11
  %22 = getelementptr inbounds nuw i8, ptr %.169, i64 1
  store i8 %21, ptr %22, align 1, !tbaa !11
  %23 = getelementptr inbounds nuw i8, ptr %.169, i64 2
  br label %24

24:                                               ; preds = %87, %15
  %.173 = phi i32 [ %.072, %15 ], [ %0, %87 ]
  %.270 = phi ptr [ %23, %15 ], [ %91, %87 ]
  %.1 = phi i32 [ %16, %15 ], [ %88, %87 ]
  %.neg81 = mul i32 %.1, -1000000
  %25 = add i32 %.neg81, %.173
  br label %26

26:                                               ; preds = %76, %24
  %.274 = phi i32 [ %25, %24 ], [ %0, %76 ]
  %.371 = phi ptr [ %.270, %24 ], [ %1, %76 ]
  %27 = udiv i32 %.274, 10000
  %28 = zext nneg i32 %27 to i64
  %29 = getelementptr inbounds nuw [100 x [2 x i8]], ptr @_ZN6google8protobufL16two_ASCII_digitsE, i64 0, i64 %28
  %30 = load i8, ptr %29, align 2, !tbaa !11
  store i8 %30, ptr %.371, align 1, !tbaa !11
  %31 = getelementptr inbounds nuw i8, ptr %29, i64 1
  %32 = load i8, ptr %31, align 1, !tbaa !11
  %33 = getelementptr inbounds nuw i8, ptr %.371, i64 1
  store i8 %32, ptr %33, align 1, !tbaa !11
  %34 = getelementptr inbounds nuw i8, ptr %.371, i64 2
  br label %35

35:                                               ; preds = %78, %26
  %.375 = phi i32 [ %.274, %26 ], [ %0, %78 ]
  %.4 = phi ptr [ %34, %26 ], [ %82, %78 ]
  %.2 = phi i32 [ %27, %26 ], [ %79, %78 ]
  %.neg82 = mul i32 %.2, -10000
  %36 = add i32 %.neg82, %.375
  br label %37

37:                                               ; preds = %67, %35
  %.476 = phi i32 [ %36, %35 ], [ %0, %67 ]
  %.5 = phi ptr [ %.4, %35 ], [ %1, %67 ]
  %38 = udiv i32 %.476, 100
  %39 = zext nneg i32 %38 to i64
  %40 = getelementptr inbounds nuw [100 x [2 x i8]], ptr @_ZN6google8protobufL16two_ASCII_digitsE, i64 0, i64 %39
  %41 = load i8, ptr %40, align 2, !tbaa !11
  store i8 %41, ptr %.5, align 1, !tbaa !11
  %42 = getelementptr inbounds nuw i8, ptr %40, i64 1
  %43 = load i8, ptr %42, align 1, !tbaa !11
  %44 = getelementptr inbounds nuw i8, ptr %.5, i64 1
  store i8 %43, ptr %44, align 1, !tbaa !11
  %45 = getelementptr inbounds nuw i8, ptr %.5, i64 2
  br label %46

46:                                               ; preds = %69, %37
  %.577 = phi i32 [ %.476, %37 ], [ %0, %69 ]
  %.6 = phi ptr [ %45, %37 ], [ %73, %69 ]
  %.3 = phi i32 [ %38, %37 ], [ %.zext, %69 ]
  %.neg83 = mul i32 %.3, -100
  %47 = add i32 %.neg83, %.577
  br label %48

48:                                               ; preds = %59, %46
  %.678 = phi i32 [ %47, %46 ], [ %0, %59 ]
  %.7 = phi ptr [ %.6, %46 ], [ %1, %59 ]
  %49 = zext i32 %.678 to i64
  %50 = getelementptr inbounds nuw [100 x [2 x i8]], ptr @_ZN6google8protobufL16two_ASCII_digitsE, i64 0, i64 %49
  %51 = load i8, ptr %50, align 2, !tbaa !11
  store i8 %51, ptr %.7, align 1, !tbaa !11
  %52 = getelementptr inbounds nuw i8, ptr %50, i64 1
  %53 = load i8, ptr %52, align 1, !tbaa !11
  %54 = getelementptr inbounds nuw i8, ptr %.7, i64 1
  store i8 %53, ptr %54, align 1, !tbaa !11
  %55 = getelementptr inbounds nuw i8, ptr %.7, i64 2
  br label %56

56:                                               ; preds = %61, %48
  %.8 = phi ptr [ %55, %48 ], [ %64, %61 ]
  store i8 0, ptr %.8, align 1, !tbaa !11
  ret ptr %.8

57:                                               ; preds = %2
  %58 = icmp samesign ult i32 %0, 100
  br i1 %58, label %59, label %65

59:                                               ; preds = %57
  %60 = icmp samesign ugt i32 %0, 9
  br i1 %60, label %48, label %61

61:                                               ; preds = %59
  %62 = trunc nuw i32 %0 to i8
  %63 = or disjoint i8 %62, 48
  %64 = getelementptr inbounds nuw i8, ptr %1, i64 1
  store i8 %63, ptr %1, align 1, !tbaa !11
  br label %56

65:                                               ; preds = %57
  %66 = icmp samesign ult i32 %0, 10000
  br i1 %66, label %67, label %74

67:                                               ; preds = %65
  %68 = icmp samesign ugt i32 %0, 999
  br i1 %68, label %37, label %69

69:                                               ; preds = %67
  %.lhs.trunc = trunc nuw i32 %0 to i16
  %70 = udiv i16 %.lhs.trunc, 100
  %.zext = zext nneg i16 %70 to i32
  %71 = trunc nuw i16 %70 to i8
  %72 = or disjoint i8 %71, 48
  %73 = getelementptr inbounds nuw i8, ptr %1, i64 1
  store i8 %72, ptr %1, align 1, !tbaa !11
  br label %46

74:                                               ; preds = %65
  %75 = icmp samesign ult i32 %0, 1000000
  br i1 %75, label %76, label %83

76:                                               ; preds = %74
  %77 = icmp samesign ugt i32 %0, 99999
  br i1 %77, label %26, label %78

78:                                               ; preds = %76
  %79 = udiv i32 %0, 10000
  %80 = trunc nuw i32 %79 to i8
  %81 = or disjoint i8 %80, 48
  %82 = getelementptr inbounds nuw i8, ptr %1, i64 1
  store i8 %81, ptr %1, align 1, !tbaa !11
  br label %35

83:                                               ; preds = %74
  %84 = icmp samesign ult i32 %0, 100000000
  br i1 %84, label %85, label %92

85:                                               ; preds = %83
  %86 = icmp samesign ugt i32 %0, 9999999
  br i1 %86, label %15, label %87

87:                                               ; preds = %85
  %88 = udiv i32 %0, 1000000
  %89 = trunc nuw i32 %88 to i8
  %90 = add nuw nsw i8 %89, 48
  %91 = getelementptr inbounds nuw i8, ptr %1, i64 1
  store i8 %90, ptr %1, align 1, !tbaa !11
  br label %24

92:                                               ; preds = %83
  %93 = udiv i32 %0, 100000000
  %94 = trunc nuw nsw i32 %93 to i8
  %95 = or disjoint i8 %94, 48
  %96 = getelementptr inbounds nuw i8, ptr %1, i64 1
  store i8 %95, ptr %1, align 1, !tbaa !11
  br label %13
}